; ModuleID = '7/645.c'
source_filename = "7/645.c"
target datalayout = "e-m:e-p270:32:32-p271:32:32-p272:64:64-i64:64-f80:128-n8:16:32:64-S128"
target triple = "x86_64-pc-linux-gnu"

@.str = private unnamed_addr constant [3 x i8] c"%s\00", align 1

; Function Attrs: noinline nounwind uwtable
define dso_local i32 @main() #0 {
  %1 = alloca i32, align 4
  %2 = alloca i32, align 4
  %3 = alloca i32, align 4
  %4 = alloca i32, align 4
  %5 = alloca i32, align 4
  %6 = alloca i32, align 4
  %7 = alloca i32, align 4
  %8 = alloca i32, align 4
  %9 = alloca i32, align 4
  %10 = alloca [100 x i8], align 16
  %11 = alloca [100 x i8], align 16
  %12 = alloca [100 x i8], align 16
  %13 = alloca [100 x i8], align 16
  store i32 0, i32* %1, align 4
  store i32 0, i32* %6, align 4
  store i32 0, i32* %8, align 4
  store i32 0, i32* %9, align 4
  %14 = getelementptr inbounds [100 x i8], [100 x i8]* %10, i64 0, i64 0
  %15 = call i32 (i8*, ...) @__isoc99_scanf(i8* getelementptr inbounds ([3 x i8], [3 x i8]* @.str, i64 0, i64 0), i8* %14)
  %16 = getelementptr inbounds [100 x i8], [100 x i8]* %11, i64 0, i64 0
  %17 = call i32 (i8*, ...) @__isoc99_scanf(i8* getelementptr inbounds ([3 x i8], [3 x i8]* @.str, i64 0, i64 0), i8* %16)
  %18 = getelementptr inbounds [100 x i8], [100 x i8]* %12, i64 0, i64 0
  %19 = call i32 (i8*, ...) @__isoc99_scanf(i8* getelementptr inbounds ([3 x i8], [3 x i8]* @.str, i64 0, i64 0), i8* %18)
  %20 = getelementptr inbounds [100 x i8], [100 x i8]* %10, i64 0, i64 0
  %21 = call i64 @strlen(i8* %20) #3
  %22 = trunc i64 %21 to i32
  store i32 %22, i32* %2, align 4
  %23 = getelementptr inbounds [100 x i8], [100 x i8]* %11, i64 0, i64 0
  %24 = call i64 @strlen(i8* %23) #3
  %25 = trunc i64 %24 to i32
  store i32 %25, i32* %3, align 4
  %26 = getelementptr inbounds [100 x i8], [100 x i8]* %12, i64 0, i64 0
  %27 = call i64 @strlen(i8* %26) #3
  %28 = trunc i64 %27 to i32
  store i32 %28, i32* %4, align 4
  store i32 0, i32* %5, align 4
  br label %29

29:                                               ; preds = %128, %0
  %30 = load i32, i32* %5, align 4
  %31 = load i32, i32* %2, align 4
  %32 = icmp slt i32 %30, %31
  br i1 %32, label %33, label %131

33:                                               ; preds = %29
  %34 = load i32, i32* %5, align 4
  %35 = sext i32 %34 to i64
  %36 = getelementptr inbounds [100 x i8], [100 x i8]* %10, i64 0, i64 %35
  %37 = load i8, i8* %36, align 1
  %38 = sext i8 %37 to i32
  %39 = getelementptr inbounds [100 x i8], [100 x i8]* %11, i64 0, i64 0
  %40 = load i8, i8* %39, align 16
  %41 = sext i8 %40 to i32
  %42 = icmp ne i32 %38, %41
  br i1 %42, label %43, label %52

43:                                               ; preds = %33
  %44 = load i32, i32* %5, align 4
  %45 = sext i32 %44 to i64
  %46 = getelementptr inbounds [100 x i8], [100 x i8]* %10, i64 0, i64 %45
  %47 = load i8, i8* %46, align 1
  %48 = load i32, i32* %8, align 4
  %49 = add nsw i32 %48, 1
  store i32 %49, i32* %8, align 4
  %50 = sext i32 %48 to i64
  %51 = getelementptr inbounds [100 x i8], [100 x i8]* %13, i64 0, i64 %50
  store i8 %47, i8* %51, align 1
  br label %127

52:                                               ; preds = %33
  store i32 0, i32* %6, align 4
  %53 = load i32, i32* %5, align 4
  store i32 %53, i32* %7, align 4
  br label %54

54:                                               ; preds = %72, %52
  %55 = load i32, i32* %6, align 4
  %56 = load i32, i32* %3, align 4
  %57 = icmp slt i32 %55, %56
  br i1 %57, label %58, label %77

58:                                               ; preds = %54
  %59 = load i32, i32* %7, align 4
  %60 = sext i32 %59 to i64
  %61 = getelementptr inbounds [100 x i8], [100 x i8]* %10, i64 0, i64 %60
  %62 = load i8, i8* %61, align 1
  %63 = sext i8 %62 to i32
  %64 = load i32, i32* %6, align 4
  %65 = sext i32 %64 to i64
  %66 = getelementptr inbounds [100 x i8], [100 x i8]* %11, i64 0, i64 %65
  %67 = load i8, i8* %66, align 1
  %68 = sext i8 %67 to i32
  %69 = icmp ne i32 %63, %68
  br i1 %69, label %70, label %71

70:                                               ; preds = %58
  br label %77

71:                                               ; preds = %58
  br label %72

72:                                               ; preds = %71
  %73 = load i32, i32* %6, align 4
  %74 = add nsw i32 %73, 1
  store i32 %74, i32* %6, align 4
  %75 = load i32, i32* %7, align 4
  %76 = add nsw i32 %75, 1
  store i32 %76, i32* %7, align 4
  br label %54

77:                                               ; preds = %70, %54
  %78 = load i32, i32* %6, align 4
  %79 = load i32, i32* %3, align 4
  %80 = icmp eq i32 %78, %79
  br i1 %80, label %81, label %106

81:                                               ; preds = %77
  %82 = load i32, i32* %9, align 4
  %83 = icmp ne i32 %82, 1
  br i1 %83, label %84, label %106

84:                                               ; preds = %81
  %85 = load i32, i32* %7, align 4
  %86 = sub nsw i32 %85, 1
  store i32 %86, i32* %5, align 4
  store i32 0, i32* %6, align 4
  br label %87

87:                                               ; preds = %100, %84
  %88 = load i32, i32* %6, align 4
  %89 = load i32, i32* %4, align 4
  %90 = icmp slt i32 %88, %89
  br i1 %90, label %91, label %103

91:                                               ; preds = %87
  %92 = load i32, i32* %6, align 4
  %93 = sext i32 %92 to i64
  %94 = getelementptr inbounds [100 x i8], [100 x i8]* %12, i64 0, i64 %93
  %95 = load i8, i8* %94, align 1
  %96 = load i32, i32* %8, align 4
  %97 = add nsw i32 %96, 1
  store i32 %97, i32* %8, align 4
  %98 = sext i32 %96 to i64
  %99 = getelementptr inbounds [100 x i8], [100 x i8]* %13, i64 0, i64 %98
  store i8 %95, i8* %99, align 1
  br label %100

100:                                              ; preds = %91
  %101 = load i32, i32* %6, align 4
  %102 = add nsw i32 %101, 1
  store i32 %102, i32* %6, align 4
  br label %87

103:                                              ; preds = %87
  %104 = load i32, i32* %9, align 4
  %105 = add nsw i32 %104, 1
  store i32 %105, i32* %9, align 4
  br label %126

106:                                              ; preds = %81, %77
  br label %107

107:                                              ; preds = %120, %106
  %108 = load i32, i32* %5, align 4
  %109 = load i32, i32* %7, align 4
  %110 = icmp sle i32 %108, %109
  br i1 %110, label %111, label %123

111:                                              ; preds = %107
  %112 = load i32, i32* %5, align 4
  %113 = sext i32 %112 to i64
  %114 = getelementptr inbounds [100 x i8], [100 x i8]* %10, i64 0, i64 %113
  %115 = load i8, i8* %114, align 1
  %116 = load i32, i32* %8, align 4
  %117 = add nsw i32 %116, 1
  store i32 %117, i32* %8, align 4
  %118 = sext i32 %116 to i64
  %119 = getelementptr inbounds [100 x i8], [100 x i8]* %13, i64 0, i64 %118
  store i8 %115, i8* %119, align 1
  br label %120

120:                                              ; preds = %111
  %121 = load i32, i32* %5, align 4
  %122 = add nsw i32 %121, 1
  store i32 %122, i32* %5, align 4
  br label %107

123:                                              ; preds = %107
  %124 = load i32, i32* %5, align 4
  %125 = add nsw i32 %124, -1
  store i32 %125, i32* %5, align 4
  br label %126

126:                                              ; preds = %123, %103
  br label %127

127:                                              ; preds = %126, %43
  br label %128

128:                                              ; preds = %127
  %129 = load i32, i32* %5, align 4
  %130 = add nsw i32 %129, 1
  store i32 %130, i32* %5, align 4
  br label %29

131:                                              ; preds = %29
  %132 = load i32, i32* %8, align 4
  %133 = sext i32 %132 to i64
  %134 = getelementptr inbounds [100 x i8], [100 x i8]* %13, i64 0, i64 %133
  store i8 0, i8* %134, align 1
  %135 = getelementptr inbounds [100 x i8], [100 x i8]* %13, i64 0, i64 0
  %136 = call i32 (i8*, ...) @printf(i8* getelementptr inbounds ([3 x i8], [3 x i8]* @.str, i64 0, i64 0), i8* %135)
  ret i32 0
}

declare dso_local i32 @__isoc99_scanf(i8*, ...) #1

; Function Attrs: nounwind readonly
declare dso_local i64 @strlen(i8*) #2

declare dso_local i32 @printf(i8*, ...) #1


!llvm.module.flags = !{!0}
!llvm.ident = !{!1}

!0 = !{i32 1, !"wchar_size", i32 4}
!1 = !{!"clang version 10.0.0-4ubuntu1 "}
